Archive member included because of file (symbol)

c:/Embedded/Microchip/MPLAB C32 Suite/bin/../lib/gcc/pic32mx/3.4.4/../../../../pic32mx/lib\libc.a(memset.o)
                              build/default/production/_ext/1360907413/usb_device.o (memset)
c:/Embedded/Microchip/MPLAB C32 Suite/bin/../lib/gcc/pic32mx/3.4.4/../../../../pic32mx/lib\libc.a(general-exception.o)
                              c:/Embedded/Microchip/MPLAB C32 Suite/bin/../lib/gcc/pic32mx/3.4.4/../../../../pic32mx/lib/crt0.o (_general_exception_context)
c:/Embedded/Microchip/MPLAB C32 Suite/bin/../lib/gcc/pic32mx/3.4.4/../../../../pic32mx/lib\libc.a(default-general-exception-handler.o)
                              c:/Embedded/Microchip/MPLAB C32 Suite/bin/../lib/gcc/pic32mx/3.4.4/../../../../pic32mx/lib\libc.a(general-exception.o) (_general_exception_handler)
c:/Embedded/Microchip/MPLAB C32 Suite/bin/../lib/gcc/pic32mx/3.4.4/../../../../pic32mx/lib\libc.a(default-bootstrap-exception-handler.o)
                              c:/Embedded/Microchip/MPLAB C32 Suite/bin/../lib/gcc/pic32mx/3.4.4/../../../../pic32mx/lib/crt0.o (_bootstrap_exception_handler)
c:/Embedded/Microchip/MPLAB C32 Suite/bin/../lib/gcc/pic32mx/3.4.4/../../../../pic32mx/lib\libc.a(default-on-reset.o)
                              c:/Embedded/Microchip/MPLAB C32 Suite/bin/../lib/gcc/pic32mx/3.4.4/../../../../pic32mx/lib/crt0.o (_on_reset)
c:/Embedded/Microchip/MPLAB C32 Suite/bin/../lib/gcc/pic32mx/3.4.4/../../../../pic32mx/lib\libc.a(default-on-bootstrap.o)
                              c:/Embedded/Microchip/MPLAB C32 Suite/bin/../lib/gcc/pic32mx/3.4.4/../../../../pic32mx/lib/crt0.o (_on_bootstrap)
c:/Embedded/Microchip/MPLAB C32 Suite/bin/../lib/gcc/pic32mx/3.4.4/../../../../pic32mx/lib\libc.a(default-nmi-handler.o)
                              c:/Embedded/Microchip/MPLAB C32 Suite/bin/../lib/gcc/pic32mx/3.4.4/../../../../pic32mx/lib/crt0.o (_nmi_handler)
c:/Embedded/Microchip/MPLAB C32 Suite/bin/../lib/gcc/pic32mx/3.4.4/../../../../pic32mx/lib\libmchp_peripheral_32MX695F512H.a(soft_reset_lib.o)
                              build/default/production/_ext/1472/main.o (SoftReset)
c:/Embedded/Microchip/MPLAB C32 Suite/bin/../lib/gcc/pic32mx/3.4.4/../../../../pic32mx/lib\libmchp_peripheral_32MX695F512H.a(int_disable_interrupts_lib.o)
                              c:/Embedded/Microchip/MPLAB C32 Suite/bin/../lib/gcc/pic32mx/3.4.4/../../../../pic32mx/lib\libmchp_peripheral_32MX695F512H.a(soft_reset_lib.o) (INTDisableInterrupts)
c:/Embedded/Microchip/MPLAB C32 Suite/bin/../lib/gcc/pic32mx/3.4.4/../../../../pic32mx/lib\libmchp_peripheral_32MX695F512H.a(nvm_erase_page_lib.o)
                              build/default/production/_ext/1472/main.o (NVMErasePage)
c:/Embedded/Microchip/MPLAB C32 Suite/bin/../lib/gcc/pic32mx/3.4.4/../../../../pic32mx/lib\libmchp_peripheral_32MX695F512H.a(nvm_operation_lib.o)
                              c:/Embedded/Microchip/MPLAB C32 Suite/bin/../lib/gcc/pic32mx/3.4.4/../../../../pic32mx/lib\libmchp_peripheral_32MX695F512H.a(nvm_erase_page_lib.o) (_NVMOperation)
c:/Embedded/Microchip/MPLAB C32 Suite/bin/../lib/gcc/pic32mx/3.4.4/../../../../pic32mx/lib\libmchp_peripheral_32MX695F512H.a(nvm_write_word_lib.o)
                              build/default/production/_ext/1472/main.o (NVMWriteWord)
c:/Embedded/Microchip/MPLAB C32 Suite/bin/../lib/gcc/pic32mx/3.4.4/../../../../pic32mx/lib\libmchp_peripheral_32MX695F512H.a(int_restore_interrupts_lib.o)
                              c:/Embedded/Microchip/MPLAB C32 Suite/bin/../lib/gcc/pic32mx/3.4.4/../../../../pic32mx/lib\libmchp_peripheral_32MX695F512H.a(nvm_operation_lib.o) (INTRestoreInterrupts)

Allocating common symbols
Common symbol       size              file

BufferedDataIndex   0x1               build/default/production/_ext/1472/main.o
MaxPageToErase      0x1               build/default/production/_ext/1472/main.o
ep_data_in          0x2               build/default/production/_ext/1360907413/usb_device.o
inPipes             0x10              build/default/production/_ext/1360907413/usb_device.o
USBDeferStatusStagePacket
                    0x4               build/default/production/_ext/1360907413/usb_device.o
USTATcopy           0x1               build/default/production/_ext/1360907413/usb_device.o
CtrlTrfData         0x8               build/default/production/_ext/1360907413/usb_device.o
RemoteWakeup        0x4               build/default/production/_ext/1360907413/usb_device.o
controlTransferState
                    0x1               build/default/production/_ext/1360907413/usb_device.o
USBStatusStageTimeoutCounter
                    0x1               build/default/production/_ext/1360907413/usb_device.o
pDst                0x4               build/default/production/_ext/1360907413/usb_device.o
PacketFromPCBuffer  0x40              build/default/production/_ext/1472/main.o
PacketToPC          0x40              build/default/production/_ext/1472/main.o
ErasePageTracker    0x1               build/default/production/_ext/1472/main.o
USBDeferINDataStagePackets
                    0x4               build/default/production/_ext/1360907413/usb_device.o
ep_data_out         0x2               build/default/production/_ext/1360907413/usb_device.o
SetupPkt            0x8               build/default/production/_ext/1360907413/usb_device.o
pBDTEntryEP0OutNext
                    0x4               build/default/production/_ext/1360907413/usb_device.o
USBAlternateInterface
                    0x1               build/default/production/_ext/1360907413/usb_device.o
outPipes            0xb               build/default/production/_ext/1360907413/usb_device.o
active_protocol     0x1               build/default/production/_ext/1360907413/usb_function_hid.o
ProgrammedPointer   0x4               build/default/production/_ext/1472/main.o
USBStatusStageEnabledFlag2
                    0x4               build/default/production/_ext/1360907413/usb_device.o
BothEP0OutUOWNsSet  0x4               build/default/production/_ext/1360907413/usb_device.o
USBBusIsSuspended   0x4               build/default/production/_ext/1360907413/usb_device.o
USBDeferOUTDataStagePackets
                    0x4               build/default/production/_ext/1360907413/usb_device.o
hid_report_out      0x40              build/default/production/_ext/1360907413/usb_device.o
PacketFromPC        0x40              build/default/production/_ext/1472/main.o
BootState           0x1               build/default/production/_ext/1472/main.o
pBDTEntryOut        0x8               build/default/production/_ext/1360907413/usb_device.o
USBActiveConfiguration
                    0x1               build/default/production/_ext/1360907413/usb_device.o
ConfigsProtected    0x1               build/default/production/_ext/1472/main.o
USBStatusStageEnabledFlag1
                    0x4               build/default/production/_ext/1360907413/usb_device.o
USBDeviceState      0x4               build/default/production/_ext/1360907413/usb_device.o
ProgramMemStopAddress
                    0x4               build/default/production/_ext/1472/main.o
pBDTEntryIn         0x8               build/default/production/_ext/1360907413/usb_device.o
pBDTEntryEP0OutCurrent
                    0x4               build/default/production/_ext/1360907413/usb_device.o
shortPacketStatus   0x1               build/default/production/_ext/1360907413/usb_device.o
ProgrammingBuffer   0x80              build/default/production/_ext/1472/main.o
idle_rate           0x1               build/default/production/_ext/1360907413/usb_function_hid.o
hid_report_in       0x40              build/default/production/_ext/1360907413/usb_device.o
BDT                 0x40              build/default/production/_ext/1360907413/usb_device.o
endpoint_number     0x1               build/default/production/_ext/1360907413/usb_device.o

Microchip PIC32 Memory-Usage Report

kseg0 Program-Memory Usage
section                    address  length [bytes]      (dec)  Description
-------                 ----------  -------------------------  -----------
.text                   0x9d000000         0x41dc       16860  Application's executable code 
.rodata                 0x9d0041dc          0x124         292  Read-only constant data 
.sdata                  0x9d004300            0x4           4  Small data-initialization template 
      Total kseg0_program_mem used  :      0x4304       17156  3.3% of 0x80000

kseg0 Boot-Memory Usage
section                    address  length [bytes]      (dec)  Description
-------                 ----------  -------------------------  -----------
.startup                0x9fc00490          0x1e0         480  C startup code 
         Total kseg0_boot_mem used  :       0x1e0         480  19.9% of 0x970

Exception-Memory Usage 
section                    address  length [bytes]      (dec)  Description
-------                 ----------  -------------------------  -----------
.app_excpt              0x9fc01180           0x10          16  General-Exception handler 
          Total exception_mem used  :        0x10          16  0.4% of 0x1000

kseg1 Boot-Memory Usage
section                    address  length [bytes]      (dec)  Description
-------                 ----------  -------------------------  -----------
.reset                  0xbfc00000           0x10          16  Reset handler 
.bev_excpt              0xbfc00380           0x10          16  BEV-Exception handler 
         Total kseg1_boot_mem used  :        0x20          32  2.7% of 0x490
        --------------------------------------------------------------------------
         Total Program Memory used  :      0x4514       17684  3.3% of 0x81e00
        --------------------------------------------------------------------------


kseg1 Data-Memory Usage
section                    address  length [bytes]      (dec)  Description
-------                 ----------  -------------------------  -----------
.sdata                  0xa0000000            0x4           4  Small initialized data 
.sbss                   0xa0000004           0x88         136  Small uninitialized data 
.bss                    0xa0000200          0x380         896  Uninitialized data 
.stack                  0xa0000588          0x400        1024  Minimum space reserved for stack 
.boot_software_key_sec  0xa0000580            0x4           4   
         Total kseg1_data_mem used  :       0x810        2064  1.6% of 0x20000
        --------------------------------------------------------------------------
            Total Data Memory used  :       0x810        2064  1.6% of 0x20000
        --------------------------------------------------------------------------

Discarded input sections

 .data          0x00000000        0x0 c:/Embedded/Microchip/MPLAB C32 Suite/bin/../lib/gcc/pic32mx/3.4.4/../../../../pic32mx/lib/crt0.o
 .bss           0x00000000        0x0 c:/Embedded/Microchip/MPLAB C32 Suite/bin/../lib/gcc/pic32mx/3.4.4/../../../../pic32mx/lib/crt0.o
 .reginfo       0x00000000       0x18 c:/Embedded/Microchip/MPLAB C32 Suite/bin/../lib/gcc/pic32mx/3.4.4/../../../../pic32mx/lib/crt0.o
 .pdr           0x00000000       0xa0 c:/Embedded/Microchip/MPLAB C32 Suite/bin/../lib/gcc/pic32mx/3.4.4/../../../../pic32mx/lib/crt0.o
 .data          0x00000000        0x0 build/default/production/_ext/1360907413/usb_device.o
 .bss           0x00000000        0x0 build/default/production/_ext/1360907413/usb_device.o
 .reginfo       0x00000000       0x18 build/default/production/_ext/1360907413/usb_device.o
 .pdr           0x00000000      0x300 build/default/production/_ext/1360907413/usb_device.o
 .data          0x00000000        0x0 build/default/production/_ext/1360907413/usb_function_hid.o
 .bss           0x00000000        0x0 build/default/production/_ext/1360907413/usb_function_hid.o
 .reginfo       0x00000000       0x18 build/default/production/_ext/1360907413/usb_function_hid.o
 .pdr           0x00000000       0x20 build/default/production/_ext/1360907413/usb_function_hid.o
 .data          0x00000000        0x0 build/default/production/_ext/1472/main.o
 .bss           0x00000000        0x0 build/default/production/_ext/1472/main.o
 .reginfo       0x00000000       0x18 build/default/production/_ext/1472/main.o
 .pdr           0x00000000      0x220 build/default/production/_ext/1472/main.o
 .text          0x00000000        0x0 build/default/production/_ext/1472/usb_descriptors.o
 .data          0x00000000        0x0 build/default/production/_ext/1472/usb_descriptors.o
 .bss           0x00000000        0x0 build/default/production/_ext/1472/usb_descriptors.o
 .reginfo       0x00000000       0x18 build/default/production/_ext/1472/usb_descriptors.o
 .pdr           0x00000000        0x0 build/default/production/_ext/1472/usb_descriptors.o
 .data          0x00000000        0x0 c:/Embedded/Microchip/MPLAB C32 Suite/bin/../lib/gcc/pic32mx/3.4.4/../../../../pic32mx/lib\libc.a(memset.o)
 .bss           0x00000000        0x0 c:/Embedded/Microchip/MPLAB C32 Suite/bin/../lib/gcc/pic32mx/3.4.4/../../../../pic32mx/lib\libc.a(memset.o)
 .reginfo       0x00000000       0x18 c:/Embedded/Microchip/MPLAB C32 Suite/bin/../lib/gcc/pic32mx/3.4.4/../../../../pic32mx/lib\libc.a(memset.o)
 .pdr           0x00000000       0x20 c:/Embedded/Microchip/MPLAB C32 Suite/bin/../lib/gcc/pic32mx/3.4.4/../../../../pic32mx/lib\libc.a(memset.o)
 .text          0x00000000        0x0 c:/Embedded/Microchip/MPLAB C32 Suite/bin/../lib/gcc/pic32mx/3.4.4/../../../../pic32mx/lib\libc.a(general-exception.o)
 .data          0x00000000        0x0 c:/Embedded/Microchip/MPLAB C32 Suite/bin/../lib/gcc/pic32mx/3.4.4/../../../../pic32mx/lib\libc.a(general-exception.o)
 .bss           0x00000000        0x0 c:/Embedded/Microchip/MPLAB C32 Suite/bin/../lib/gcc/pic32mx/3.4.4/../../../../pic32mx/lib\libc.a(general-exception.o)
 .reginfo       0x00000000       0x18 c:/Embedded/Microchip/MPLAB C32 Suite/bin/../lib/gcc/pic32mx/3.4.4/../../../../pic32mx/lib\libc.a(general-exception.o)
 .pdr           0x00000000       0x20 c:/Embedded/Microchip/MPLAB C32 Suite/bin/../lib/gcc/pic32mx/3.4.4/../../../../pic32mx/lib\libc.a(general-exception.o)
 .text          0x00000000        0x0 c:/Embedded/Microchip/MPLAB C32 Suite/bin/../lib/gcc/pic32mx/3.4.4/../../../../pic32mx/lib\libc.a(default-general-exception-handler.o)
 .data          0x00000000        0x0 c:/Embedded/Microchip/MPLAB C32 Suite/bin/../lib/gcc/pic32mx/3.4.4/../../../../pic32mx/lib\libc.a(default-general-exception-handler.o)
 .bss           0x00000000        0x0 c:/Embedded/Microchip/MPLAB C32 Suite/bin/../lib/gcc/pic32mx/3.4.4/../../../../pic32mx/lib\libc.a(default-general-exception-handler.o)
 .reginfo       0x00000000       0x18 c:/Embedded/Microchip/MPLAB C32 Suite/bin/../lib/gcc/pic32mx/3.4.4/../../../../pic32mx/lib\libc.a(default-general-exception-handler.o)
 .pdr           0x00000000       0x20 c:/Embedded/Microchip/MPLAB C32 Suite/bin/../lib/gcc/pic32mx/3.4.4/../../../../pic32mx/lib\libc.a(default-general-exception-handler.o)
 .text          0x00000000        0x0 c:/Embedded/Microchip/MPLAB C32 Suite/bin/../lib/gcc/pic32mx/3.4.4/../../../../pic32mx/lib\libc.a(default-bootstrap-exception-handler.o)
 .data          0x00000000        0x0 c:/Embedded/Microchip/MPLAB C32 Suite/bin/../lib/gcc/pic32mx/3.4.4/../../../../pic32mx/lib\libc.a(default-bootstrap-exception-handler.o)
 .bss           0x00000000        0x0 c:/Embedded/Microchip/MPLAB C32 Suite/bin/../lib/gcc/pic32mx/3.4.4/../../../../pic32mx/lib\libc.a(default-bootstrap-exception-handler.o)
 .reginfo       0x00000000       0x18 c:/Embedded/Microchip/MPLAB C32 Suite/bin/../lib/gcc/pic32mx/3.4.4/../../../../pic32mx/lib\libc.a(default-bootstrap-exception-handler.o)
 .pdr           0x00000000       0x20 c:/Embedded/Microchip/MPLAB C32 Suite/bin/../lib/gcc/pic32mx/3.4.4/../../../../pic32mx/lib\libc.a(default-bootstrap-exception-handler.o)
 .text          0x00000000        0x0 c:/Embedded/Microchip/MPLAB C32 Suite/bin/../lib/gcc/pic32mx/3.4.4/../../../../pic32mx/lib\libc.a(default-on-reset.o)
 .data          0x00000000        0x0 c:/Embedded/Microchip/MPLAB C32 Suite/bin/../lib/gcc/pic32mx/3.4.4/../../../../pic32mx/lib\libc.a(default-on-reset.o)
 .bss           0x00000000        0x0 c:/Embedded/Microchip/MPLAB C32 Suite/bin/../lib/gcc/pic32mx/3.4.4/../../../../pic32mx/lib\libc.a(default-on-reset.o)
 .reginfo       0x00000000       0x18 c:/Embedded/Microchip/MPLAB C32 Suite/bin/../lib/gcc/pic32mx/3.4.4/../../../../pic32mx/lib\libc.a(default-on-reset.o)
 .pdr           0x00000000       0x20 c:/Embedded/Microchip/MPLAB C32 Suite/bin/../lib/gcc/pic32mx/3.4.4/../../../../pic32mx/lib\libc.a(default-on-reset.o)
 .text          0x00000000        0x0 c:/Embedded/Microchip/MPLAB C32 Suite/bin/../lib/gcc/pic32mx/3.4.4/../../../../pic32mx/lib\libc.a(default-on-bootstrap.o)
 .data          0x00000000        0x0 c:/Embedded/Microchip/MPLAB C32 Suite/bin/../lib/gcc/pic32mx/3.4.4/../../../../pic32mx/lib\libc.a(default-on-bootstrap.o)
 .bss           0x00000000        0x0 c:/Embedded/Microchip/MPLAB C32 Suite/bin/../lib/gcc/pic32mx/3.4.4/../../../../pic32mx/lib\libc.a(default-on-bootstrap.o)
 .reginfo       0x00000000       0x18 c:/Embedded/Microchip/MPLAB C32 Suite/bin/../lib/gcc/pic32mx/3.4.4/../../../../pic32mx/lib\libc.a(default-on-bootstrap.o)
 .pdr           0x00000000       0x20 c:/Embedded/Microchip/MPLAB C32 Suite/bin/../lib/gcc/pic32mx/3.4.4/../../../../pic32mx/lib\libc.a(default-on-bootstrap.o)
 .data          0x00000000        0x0 c:/Embedded/Microchip/MPLAB C32 Suite/bin/../lib/gcc/pic32mx/3.4.4/../../../../pic32mx/lib\libc.a(default-nmi-handler.o)
 .bss           0x00000000        0x0 c:/Embedded/Microchip/MPLAB C32 Suite/bin/../lib/gcc/pic32mx/3.4.4/../../../../pic32mx/lib\libc.a(default-nmi-handler.o)
 .reginfo       0x00000000       0x18 c:/Embedded/Microchip/MPLAB C32 Suite/bin/../lib/gcc/pic32mx/3.4.4/../../../../pic32mx/lib\libc.a(default-nmi-handler.o)
 .pdr           0x00000000       0x20 c:/Embedded/Microchip/MPLAB C32 Suite/bin/../lib/gcc/pic32mx/3.4.4/../../../../pic32mx/lib\libc.a(default-nmi-handler.o)
 .text          0x00000000        0x0 c:/Embedded/Microchip/MPLAB C32 Suite/bin/../lib/gcc/pic32mx/3.4.4/../../../../pic32mx/lib\libmchp_peripheral_32MX695F512H.a(soft_reset_lib.o)
 .data          0x00000000        0x0 c:/Embedded/Microchip/MPLAB C32 Suite/bin/../lib/gcc/pic32mx/3.4.4/../../../../pic32mx/lib\libmchp_peripheral_32MX695F512H.a(soft_reset_lib.o)
 .bss           0x00000000        0x0 c:/Embedded/Microchip/MPLAB C32 Suite/bin/../lib/gcc/pic32mx/3.4.4/../../../../pic32mx/lib\libmchp_peripheral_32MX695F512H.a(soft_reset_lib.o)
 .reginfo       0x00000000       0x18 c:/Embedded/Microchip/MPLAB C32 Suite/bin/../lib/gcc/pic32mx/3.4.4/../../../../pic32mx/lib\libmchp_peripheral_32MX695F512H.a(soft_reset_lib.o)
 .pdr           0x00000000       0x20 c:/Embedded/Microchip/MPLAB C32 Suite/bin/../lib/gcc/pic32mx/3.4.4/../../../../pic32mx/lib\libmchp_peripheral_32MX695F512H.a(soft_reset_lib.o)
 .text          0x00000000        0x0 c:/Embedded/Microchip/MPLAB C32 Suite/bin/../lib/gcc/pic32mx/3.4.4/../../../../pic32mx/lib\libmchp_peripheral_32MX695F512H.a(int_disable_interrupts_lib.o)
 .data          0x00000000        0x0 c:/Embedded/Microchip/MPLAB C32 Suite/bin/../lib/gcc/pic32mx/3.4.4/../../../../pic32mx/lib\libmchp_peripheral_32MX695F512H.a(int_disable_interrupts_lib.o)
 .bss           0x00000000        0x0 c:/Embedded/Microchip/MPLAB C32 Suite/bin/../lib/gcc/pic32mx/3.4.4/../../../../pic32mx/lib\libmchp_peripheral_32MX695F512H.a(int_disable_interrupts_lib.o)
 .reginfo       0x00000000       0x18 c:/Embedded/Microchip/MPLAB C32 Suite/bin/../lib/gcc/pic32mx/3.4.4/../../../../pic32mx/lib\libmchp_peripheral_32MX695F512H.a(int_disable_interrupts_lib.o)
 .pdr           0x00000000       0x20 c:/Embedded/Microchip/MPLAB C32 Suite/bin/../lib/gcc/pic32mx/3.4.4/../../../../pic32mx/lib\libmchp_peripheral_32MX695F512H.a(int_disable_interrupts_lib.o)
 .text          0x00000000        0x0 c:/Embedded/Microchip/MPLAB C32 Suite/bin/../lib/gcc/pic32mx/3.4.4/../../../../pic32mx/lib\libmchp_peripheral_32MX695F512H.a(nvm_erase_page_lib.o)
 .data          0x00000000        0x0 c:/Embedded/Microchip/MPLAB C32 Suite/bin/../lib/gcc/pic32mx/3.4.4/../../../../pic32mx/lib\libmchp_peripheral_32MX695F512H.a(nvm_erase_page_lib.o)
 .bss           0x00000000        0x0 c:/Embedded/Microchip/MPLAB C32 Suite/bin/../lib/gcc/pic32mx/3.4.4/../../../../pic32mx/lib\libmchp_peripheral_32MX695F512H.a(nvm_erase_page_lib.o)
 .reginfo       0x00000000       0x18 c:/Embedded/Microchip/MPLAB C32 Suite/bin/../lib/gcc/pic32mx/3.4.4/../../../../pic32mx/lib\libmchp_peripheral_32MX695F512H.a(nvm_erase_page_lib.o)
 .pdr           0x00000000       0x20 c:/Embedded/Microchip/MPLAB C32 Suite/bin/../lib/gcc/pic32mx/3.4.4/../../../../pic32mx/lib\libmchp_peripheral_32MX695F512H.a(nvm_erase_page_lib.o)
 .text          0x00000000        0x0 c:/Embedded/Microchip/MPLAB C32 Suite/bin/../lib/gcc/pic32mx/3.4.4/../../../../pic32mx/lib\libmchp_peripheral_32MX695F512H.a(nvm_operation_lib.o)
 .data          0x00000000        0x0 c:/Embedded/Microchip/MPLAB C32 Suite/bin/../lib/gcc/pic32mx/3.4.4/../../../../pic32mx/lib\libmchp_peripheral_32MX695F512H.a(nvm_operation_lib.o)
 .bss           0x00000000        0x0 c:/Embedded/Microchip/MPLAB C32 Suite/bin/../lib/gcc/pic32mx/3.4.4/../../../../pic32mx/lib\libmchp_peripheral_32MX695F512H.a(nvm_operation_lib.o)
 .reginfo       0x00000000       0x18 c:/Embedded/Microchip/MPLAB C32 Suite/bin/../lib/gcc/pic32mx/3.4.4/../../../../pic32mx/lib\libmchp_peripheral_32MX695F512H.a(nvm_operation_lib.o)
 .pdr           0x00000000       0x20 c:/Embedded/Microchip/MPLAB C32 Suite/bin/../lib/gcc/pic32mx/3.4.4/../../../../pic32mx/lib\libmchp_peripheral_32MX695F512H.a(nvm_operation_lib.o)
 .text          0x00000000        0x0 c:/Embedded/Microchip/MPLAB C32 Suite/bin/../lib/gcc/pic32mx/3.4.4/../../../../pic32mx/lib\libmchp_peripheral_32MX695F512H.a(nvm_write_word_lib.o)
 .data          0x00000000        0x0 c:/Embedded/Microchip/MPLAB C32 Suite/bin/../lib/gcc/pic32mx/3.4.4/../../../../pic32mx/lib\libmchp_peripheral_32MX695F512H.a(nvm_write_word_lib.o)
 .bss           0x00000000        0x0 c:/Embedded/Microchip/MPLAB C32 Suite/bin/../lib/gcc/pic32mx/3.4.4/../../../../pic32mx/lib\libmchp_peripheral_32MX695F512H.a(nvm_write_word_lib.o)
 .reginfo       0x00000000       0x18 c:/Embedded/Microchip/MPLAB C32 Suite/bin/../lib/gcc/pic32mx/3.4.4/../../../../pic32mx/lib\libmchp_peripheral_32MX695F512H.a(nvm_write_word_lib.o)
 .pdr           0x00000000       0x20 c:/Embedded/Microchip/MPLAB C32 Suite/bin/../lib/gcc/pic32mx/3.4.4/../../../../pic32mx/lib\libmchp_peripheral_32MX695F512H.a(nvm_write_word_lib.o)
 .text          0x00000000        0x0 c:/Embedded/Microchip/MPLAB C32 Suite/bin/../lib/gcc/pic32mx/3.4.4/../../../../pic32mx/lib\libmchp_peripheral_32MX695F512H.a(int_restore_interrupts_lib.o)
 .data          0x00000000        0x0 c:/Embedded/Microchip/MPLAB C32 Suite/bin/../lib/gcc/pic32mx/3.4.4/../../../../pic32mx/lib\libmchp_peripheral_32MX695F512H.a(int_restore_interrupts_lib.o)
 .bss           0x00000000        0x0 c:/Embedded/Microchip/MPLAB C32 Suite/bin/../lib/gcc/pic32mx/3.4.4/../../../../pic32mx/lib\libmchp_peripheral_32MX695F512H.a(int_restore_interrupts_lib.o)
 .reginfo       0x00000000       0x18 c:/Embedded/Microchip/MPLAB C32 Suite/bin/../lib/gcc/pic32mx/3.4.4/../../../../pic32mx/lib\libmchp_peripheral_32MX695F512H.a(int_restore_interrupts_lib.o)
 .pdr           0x00000000       0x20 c:/Embedded/Microchip/MPLAB C32 Suite/bin/../lib/gcc/pic32mx/3.4.4/../../../../pic32mx/lib\libmchp_peripheral_32MX695F512H.a(int_restore_interrupts_lib.o)
 .text          0x00000000        0x0 c:/Embedded/Microchip/MPLAB C32 Suite/bin/../lib/gcc/pic32mx/3.4.4/../../../../pic32mx/lib/./proc/32MX695F512H\processor.o
 .data          0x00000000        0x0 c:/Embedded/Microchip/MPLAB C32 Suite/bin/../lib/gcc/pic32mx/3.4.4/../../../../pic32mx/lib/./proc/32MX695F512H\processor.o
 .bss           0x00000000        0x0 c:/Embedded/Microchip/MPLAB C32 Suite/bin/../lib/gcc/pic32mx/3.4.4/../../../../pic32mx/lib/./proc/32MX695F512H\processor.o
 .reginfo       0x00000000       0x18 c:/Embedded/Microchip/MPLAB C32 Suite/bin/../lib/gcc/pic32mx/3.4.4/../../../../pic32mx/lib/./proc/32MX695F512H\processor.o
 .pdr           0x00000000        0x0 c:/Embedded/Microchip/MPLAB C32 Suite/bin/../lib/gcc/pic32mx/3.4.4/../../../../pic32mx/lib/./proc/32MX695F512H\processor.o

Memory Configuration

Name             Origin             Length             Attributes
kseg0_program_mem 0x9d000000         0x00080000         xr
kseg0_boot_mem   0x9fc00490         0x00000970
exception_mem    0x9fc01000         0x00001000
kseg1_boot_mem   0xbfc00000         0x00000490
debug_exec_mem   0xbfc02000         0x00000ff0
config3          0xbfc02ff0         0x00000004
config2          0xbfc02ff4         0x00000004
config1          0xbfc02ff8         0x00000004
config0          0xbfc02ffc         0x00000004
kseg1_data_mem   0xa0000000         0x00020000         w !x
sfrs             0xbf800000         0x00100000
configsfrs       0xbfc02ff0         0x00000010
*default*        0x00000000         0xffffffff

Linker script and memory map

LOAD c:/Embedded/Microchip/MPLAB C32 Suite/bin/../lib/gcc/pic32mx/3.4.4/../../../../pic32mx/lib/crt0.o
LOAD build/default/production/_ext/1360907413/usb_device.o
LOAD build/default/production/_ext/1360907413/usb_function_hid.o
LOAD build/default/production/_ext/1472/main.o
LOAD build/default/production/_ext/1472/usb_descriptors.o
                0x00000001                __MPLAB_BUILD = 0x1
LOAD c:/Embedded/Microchip/MPLAB C32 Suite/bin/../lib/gcc/pic32mx/3.4.4\libgcc.a
START GROUP
LOAD c:/Embedded/Microchip/MPLAB C32 Suite/bin/../lib/gcc/pic32mx/3.4.4/../../../../pic32mx/lib\libdebug.a
LOAD c:/Embedded/Microchip/MPLAB C32 Suite/bin/../lib/gcc/pic32mx/3.4.4/../../../../pic32mx/lib\libc.a
LOAD c:/Embedded/Microchip/MPLAB C32 Suite/bin/../lib/gcc/pic32mx/3.4.4/../../../../pic32mx/lib\libm.a
LOAD c:/Embedded/Microchip/MPLAB C32 Suite/bin/../lib/gcc/pic32mx/3.4.4/../../../../pic32mx/lib\libe.a
LOAD c:/Embedded/Microchip/MPLAB C32 Suite/bin/../lib/gcc/pic32mx/3.4.4/../../../../pic32mx/lib\libdsp.a
LOAD c:/Embedded/Microchip/MPLAB C32 Suite/bin/../lib/gcc/pic32mx/3.4.4/../../../../pic32mx/lib\libmchp_peripheral.a
LOAD c:/Embedded/Microchip/MPLAB C32 Suite/bin/../lib/gcc/pic32mx/3.4.4/../../../../pic32mx/lib\libmchp_peripheral_32MX695F512H.a
END GROUP
LOAD c:/Embedded/Microchip/MPLAB C32 Suite/bin/../lib/gcc/pic32mx/3.4.4\libgcc.a
                0x00000400                PROVIDE (_min_stack_size, 0x400)
                0x00000000                PROVIDE (_min_heap_size, 0x0)
LOAD c:/Embedded/Microchip/MPLAB C32 Suite/bin/../lib/gcc/pic32mx/3.4.4/../../../../pic32mx/lib/./proc/32MX695F512H\processor.o
                0x00000001                PROVIDE (_vector_spacing, 0x1)
                0x9fc01000                _ebase_address = 0x9fc01000
                0xbfc00000                _RESET_ADDR = 0xbfc00000
                0xbfc00380                _BEV_EXCPT_ADDR = 0xbfc00380
                0xbfc00480                _DBG_EXCPT_ADDR = 0xbfc00480
                0xbfc02000                _DBG_CODE_ADDR = 0xbfc02000
                0x9fc01180                _GEN_EXCPT_ADDR = (_ebase_address + 0x180)

.config_BFC02FF0
 *(.config_BFC02FF0)

.config_BFC02FF4
                0xbfc02ff4        0x4
 *(.config_BFC02FF4)
 .config_BFC02FF4
                0xbfc02ff4        0x4 build/default/production/_ext/1472/main.o

.config_BFC02FF8
                0xbfc02ff8        0x4
 *(.config_BFC02FF8)
 .config_BFC02FF8
                0xbfc02ff8        0x4 build/default/production/_ext/1472/main.o

.config_BFC02FFC
                0xbfc02ffc        0x4
 *(.config_BFC02FFC)
 .config_BFC02FFC
                0xbfc02ffc        0x4 build/default/production/_ext/1472/main.o

.reset          0xbfc00000       0x10
 *(.reset)
 .reset         0xbfc00000       0x10 c:/Embedded/Microchip/MPLAB C32 Suite/bin/../lib/gcc/pic32mx/3.4.4/../../../../pic32mx/lib/crt0.o
                0xbfc00000                _reset

.bev_excpt      0xbfc00380       0x10
 *(.bev_handler)
 .bev_handler   0xbfc00380       0x10 c:/Embedded/Microchip/MPLAB C32 Suite/bin/../lib/gcc/pic32mx/3.4.4/../../../../pic32mx/lib/crt0.o

.dbg_excpt      0xbfc00480        0x0
                0xbfc00480                . = (. + DEFINED (_DEBUGGER)?0x8:0x0)

.dbg_code       0xbfc02000        0x0
                0xbfc02000                . = (. + DEFINED (_DEBUGGER)?0xff0:0x0)

.app_excpt      0x9fc01180       0x10
 *(.gen_handler)
 .gen_handler   0x9fc01180       0x10 c:/Embedded/Microchip/MPLAB C32 Suite/bin/../lib/gcc/pic32mx/3.4.4/../../../../pic32mx/lib/crt0.o

.vector_0       0x9fc01200        0x0
 *(.vector_0)
                0x00000001                ASSERT (((_vector_spacing == 0x0) || (SIZEOF (.vector_0) <= (_vector_spacing << 0x5))), function at exception vector 0 too large)

.vector_1       0x9fc01220        0x0
 *(.vector_1)
                0x00000001                ASSERT (((_vector_spacing == 0x0) || (SIZEOF (.vector_1) <= (_vector_spacing << 0x5))), function at exception vector 1 too large)

.vector_2       0x9fc01240        0x0
 *(.vector_2)
                0x00000001                ASSERT (((_vector_spacing == 0x0) || (SIZEOF (.vector_2) <= (_vector_spacing << 0x5))), function at exception vector 2 too large)

.vector_3       0x9fc01260        0x0
 *(.vector_3)
                0x00000001                ASSERT (((_vector_spacing == 0x0) || (SIZEOF (.vector_3) <= (_vector_spacing << 0x5))), function at exception vector 3 too large)

.vector_4       0x9fc01280        0x0
 *(.vector_4)
                0x00000001                ASSERT (((_vector_spacing == 0x0) || (SIZEOF (.vector_4) <= (_vector_spacing << 0x5))), function at exception vector 4 too large)

.vector_5       0x9fc012a0        0x0
 *(.vector_5)
                0x00000001                ASSERT (((_vector_spacing == 0x0) || (SIZEOF (.vector_5) <= (_vector_spacing << 0x5))), function at exception vector 5 too large)

.vector_6       0x9fc012c0        0x0
 *(.vector_6)
                0x00000001                ASSERT (((_vector_spacing == 0x0) || (SIZEOF (.vector_6) <= (_vector_spacing << 0x5))), function at exception vector 6 too large)

.vector_7       0x9fc012e0        0x0
 *(.vector_7)
                0x00000001                ASSERT (((_vector_spacing == 0x0) || (SIZEOF (.vector_7) <= (_vector_spacing << 0x5))), function at exception vector 7 too large)

.vector_8       0x9fc01300        0x0
 *(.vector_8)
                0x00000001                ASSERT (((_vector_spacing == 0x0) || (SIZEOF (.vector_8) <= (_vector_spacing << 0x5))), function at exception vector 8 too large)

.vector_9       0x9fc01320        0x0
 *(.vector_9)
                0x00000001                ASSERT (((_vector_spacing == 0x0) || (SIZEOF (.vector_9) <= (_vector_spacing << 0x5))), function at exception vector 9 too large)

.vector_10      0x9fc01340        0x0
 *(.vector_10)
                0x00000001                ASSERT (((_vector_spacing == 0x0) || (SIZEOF (.vector_10) <= (_vector_spacing << 0x5))), function at exception vector 10 too large)

.vector_11      0x9fc01360        0x0
 *(.vector_11)
                0x00000001                ASSERT (((_vector_spacing == 0x0) || (SIZEOF (.vector_11) <= (_vector_spacing << 0x5))), function at exception vector 11 too large)

.vector_12      0x9fc01380        0x0
 *(.vector_12)
                0x00000001                ASSERT (((_vector_spacing == 0x0) || (SIZEOF (.vector_12) <= (_vector_spacing << 0x5))), function at exception vector 12 too large)

.vector_13      0x9fc013a0        0x0
 *(.vector_13)
                0x00000001                ASSERT (((_vector_spacing == 0x0) || (SIZEOF (.vector_13) <= (_vector_spacing << 0x5))), function at exception vector 13 too large)

.vector_14      0x9fc013c0        0x0
 *(.vector_14)
                0x00000001                ASSERT (((_vector_spacing == 0x0) || (SIZEOF (.vector_14) <= (_vector_spacing << 0x5))), function at exception vector 14 too large)

.vector_15      0x9fc013e0        0x0
 *(.vector_15)
                0x00000001                ASSERT (((_vector_spacing == 0x0) || (SIZEOF (.vector_15) <= (_vector_spacing << 0x5))), function at exception vector 15 too large)

.vector_16      0x9fc01400        0x0
 *(.vector_16)
                0x00000001                ASSERT (((_vector_spacing == 0x0) || (SIZEOF (.vector_16) <= (_vector_spacing << 0x5))), function at exception vector 16 too large)

.vector_17      0x9fc01420        0x0
 *(.vector_17)
                0x00000001                ASSERT (((_vector_spacing == 0x0) || (SIZEOF (.vector_17) <= (_vector_spacing << 0x5))), function at exception vector 17 too large)

.vector_18      0x9fc01440        0x0
 *(.vector_18)
                0x00000001                ASSERT (((_vector_spacing == 0x0) || (SIZEOF (.vector_18) <= (_vector_spacing << 0x5))), function at exception vector 18 too large)

.vector_19      0x9fc01460        0x0
 *(.vector_19)
                0x00000001                ASSERT (((_vector_spacing == 0x0) || (SIZEOF (.vector_19) <= (_vector_spacing << 0x5))), function at exception vector 19 too large)

.vector_20      0x9fc01480        0x0
 *(.vector_20)
                0x00000001                ASSERT (((_vector_spacing == 0x0) || (SIZEOF (.vector_20) <= (_vector_spacing << 0x5))), function at exception vector 20 too large)

.vector_21      0x9fc014a0        0x0
 *(.vector_21)
                0x00000001                ASSERT (((_vector_spacing == 0x0) || (SIZEOF (.vector_21) <= (_vector_spacing << 0x5))), function at exception vector 21 too large)

.vector_22      0x9fc014c0        0x0
 *(.vector_22)
                0x00000001                ASSERT (((_vector_spacing == 0x0) || (SIZEOF (.vector_22) <= (_vector_spacing << 0x5))), function at exception vector 22 too large)

.vector_23      0x9fc014e0        0x0
 *(.vector_23)
                0x00000001                ASSERT (((_vector_spacing == 0x0) || (SIZEOF (.vector_23) <= (_vector_spacing << 0x5))), function at exception vector 23 too large)

.vector_24      0x9fc01500        0x0
 *(.vector_24)
                0x00000001                ASSERT (((_vector_spacing == 0x0) || (SIZEOF (.vector_24) <= (_vector_spacing << 0x5))), function at exception vector 24 too large)

.vector_25      0x9fc01520        0x0
 *(.vector_25)
                0x00000001                ASSERT (((_vector_spacing == 0x0) || (SIZEOF (.vector_25) <= (_vector_spacing << 0x5))), function at exception vector 25 too large)

.vector_26      0x9fc01540        0x0
 *(.vector_26)
                0x00000001                ASSERT (((_vector_spacing == 0x0) || (SIZEOF (.vector_26) <= (_vector_spacing << 0x5))), function at exception vector 26 too large)

.vector_27      0x9fc01560        0x0
 *(.vector_27)
                0x00000001                ASSERT (((_vector_spacing == 0x0) || (SIZEOF (.vector_27) <= (_vector_spacing << 0x5))), function at exception vector 27 too large)

.vector_28      0x9fc01580        0x0
 *(.vector_28)
                0x00000001                ASSERT (((_vector_spacing == 0x0) || (SIZEOF (.vector_28) <= (_vector_spacing << 0x5))), function at exception vector 28 too large)

.vector_29      0x9fc015a0        0x0
 *(.vector_29)
                0x00000001                ASSERT (((_vector_spacing == 0x0) || (SIZEOF (.vector_29) <= (_vector_spacing << 0x5))), function at exception vector 29 too large)

.vector_30      0x9fc015c0        0x0
 *(.vector_30)
                0x00000001                ASSERT (((_vector_spacing == 0x0) || (SIZEOF (.vector_30) <= (_vector_spacing << 0x5))), function at exception vector 30 too large)

.vector_31      0x9fc015e0        0x0
 *(.vector_31)
                0x00000001                ASSERT (((_vector_spacing == 0x0) || (SIZEOF (.vector_31) <= (_vector_spacing << 0x5))), function at exception vector 31 too large)

.vector_32      0x9fc01600        0x0
 *(.vector_32)
                0x00000001                ASSERT (((_vector_spacing == 0x0) || (SIZEOF (.vector_32) <= (_vector_spacing << 0x5))), function at exception vector 32 too large)

.vector_33      0x9fc01620        0x0
 *(.vector_33)
                0x00000001                ASSERT (((_vector_spacing == 0x0) || (SIZEOF (.vector_33) <= (_vector_spacing << 0x5))), function at exception vector 33 too large)

.vector_34      0x9fc01640        0x0
 *(.vector_34)
                0x00000001                ASSERT (((_vector_spacing == 0x0) || (SIZEOF (.vector_34) <= (_vector_spacing << 0x5))), function at exception vector 34 too large)

.vector_35      0x9fc01660        0x0
 *(.vector_35)
                0x00000001                ASSERT (((_vector_spacing == 0x0) || (SIZEOF (.vector_35) <= (_vector_spacing << 0x5))), function at exception vector 35 too large)

.vector_36      0x9fc01680        0x0
 *(.vector_36)
                0x00000001                ASSERT (((_vector_spacing == 0x0) || (SIZEOF (.vector_36) <= (_vector_spacing << 0x5))), function at exception vector 36 too large)

.vector_37      0x9fc016a0        0x0
 *(.vector_37)
                0x00000001                ASSERT (((_vector_spacing == 0x0) || (SIZEOF (.vector_37) <= (_vector_spacing << 0x5))), function at exception vector 37 too large)

.vector_38      0x9fc016c0        0x0
 *(.vector_38)
                0x00000001                ASSERT (((_vector_spacing == 0x0) || (SIZEOF (.vector_38) <= (_vector_spacing << 0x5))), function at exception vector 38 too large)

.vector_39      0x9fc016e0        0x0
 *(.vector_39)
                0x00000001                ASSERT (((_vector_spacing == 0x0) || (SIZEOF (.vector_39) <= (_vector_spacing << 0x5))), function at exception vector 39 too large)

.vector_40      0x9fc01700        0x0
 *(.vector_40)
                0x00000001                ASSERT (((_vector_spacing == 0x0) || (SIZEOF (.vector_40) <= (_vector_spacing << 0x5))), function at exception vector 40 too large)

.vector_41      0x9fc01720        0x0
 *(.vector_41)
                0x00000001                ASSERT (((_vector_spacing == 0x0) || (SIZEOF (.vector_41) <= (_vector_spacing << 0x5))), function at exception vector 41 too large)

.vector_42      0x9fc01740        0x0
 *(.vector_42)
                0x00000001                ASSERT (((_vector_spacing == 0x0) || (SIZEOF (.vector_42) <= (_vector_spacing << 0x5))), function at exception vector 42 too large)

.vector_43      0x9fc01760        0x0
 *(.vector_43)
                0x00000001                ASSERT (((_vector_spacing == 0x0) || (SIZEOF (.vector_43) <= (_vector_spacing << 0x5))), function at exception vector 43 too large)

.vector_44      0x9fc01780        0x0
 *(.vector_44)
                0x00000001                ASSERT (((_vector_spacing == 0x0) || (SIZEOF (.vector_44) <= (_vector_spacing << 0x5))), function at exception vector 44 too large)

.vector_45      0x9fc017a0        0x0
 *(.vector_45)
                0x00000001                ASSERT (((_vector_spacing == 0x0) || (SIZEOF (.vector_45) <= (_vector_spacing << 0x5))), function at exception vector 45 too large)

.vector_46      0x9fc017c0        0x0
 *(.vector_46)
                0x00000001                ASSERT (((_vector_spacing == 0x0) || (SIZEOF (.vector_46) <= (_vector_spacing << 0x5))), function at exception vector 46 too large)

.vector_47      0x9fc017e0        0x0
 *(.vector_47)
                0x00000001                ASSERT (((_vector_spacing == 0x0) || (SIZEOF (.vector_47) <= (_vector_spacing << 0x5))), function at exception vector 47 too large)

.vector_48      0x9fc01800        0x0
 *(.vector_48)
                0x00000001                ASSERT (((_vector_spacing == 0x0) || (SIZEOF (.vector_48) <= (_vector_spacing << 0x5))), function at exception vector 48 too large)

.vector_49      0x9fc01820        0x0
 *(.vector_49)
                0x00000001                ASSERT (((_vector_spacing == 0x0) || (SIZEOF (.vector_49) <= (_vector_spacing << 0x5))), function at exception vector 49 too large)

.vector_50      0x9fc01840        0x0
 *(.vector_50)
                0x00000001                ASSERT (((_vector_spacing == 0x0) || (SIZEOF (.vector_50) <= (_vector_spacing << 0x5))), function at exception vector 50 too large)

.vector_51      0x9fc01860        0x0
 *(.vector_51)
                0x00000001                ASSERT (((_vector_spacing == 0x0) || (SIZEOF (.vector_51) <= (_vector_spacing << 0x5))), function at exception vector 51 too large)

.vector_52      0x9fc01880        0x0
 *(.vector_52)
                0x00000001                ASSERT (((_vector_spacing == 0x0) || (SIZEOF (.vector_52) <= (_vector_spacing << 0x5))), function at exception vector 52 too large)

.vector_53      0x9fc018a0        0x0
 *(.vector_53)
                0x00000001                ASSERT (((_vector_spacing == 0x0) || (SIZEOF (.vector_53) <= (_vector_spacing << 0x5))), function at exception vector 53 too large)

.vector_54      0x9fc018c0        0x0
 *(.vector_54)
                0x00000001                ASSERT (((_vector_spacing == 0x0) || (SIZEOF (.vector_54) <= (_vector_spacing << 0x5))), function at exception vector 54 too large)

.vector_55      0x9fc018e0        0x0
 *(.vector_55)
                0x00000001                ASSERT (((_vector_spacing == 0x0) || (SIZEOF (.vector_55) <= (_vector_spacing << 0x5))), function at exception vector 55 too large)

.vector_56      0x9fc01900        0x0
 *(.vector_56)
                0x00000001                ASSERT (((_vector_spacing == 0x0) || (SIZEOF (.vector_56) <= (_vector_spacing << 0x5))), function at exception vector 56 too large)

.vector_57      0x9fc01920        0x0
 *(.vector_57)
                0x00000001                ASSERT (((_vector_spacing == 0x0) || (SIZEOF (.vector_57) <= (_vector_spacing << 0x5))), function at exception vector 57 too large)

.vector_58      0x9fc01940        0x0
 *(.vector_58)
                0x00000001                ASSERT (((_vector_spacing == 0x0) || (SIZEOF (.vector_58) <= (_vector_spacing << 0x5))), function at exception vector 58 too large)

.vector_59      0x9fc01960        0x0
 *(.vector_59)
                0x00000001                ASSERT (((_vector_spacing == 0x0) || (SIZEOF (.vector_59) <= (_vector_spacing << 0x5))), function at exception vector 59 too large)

.vector_60      0x9fc01980        0x0
 *(.vector_60)
                0x00000001                ASSERT (((_vector_spacing == 0x0) || (SIZEOF (.vector_60) <= (_vector_spacing << 0x5))), function at exception vector 60 too large)

.vector_61      0x9fc019a0        0x0
 *(.vector_61)
                0x00000001                ASSERT (((_vector_spacing == 0x0) || (SIZEOF (.vector_61) <= (_vector_spacing << 0x5))), function at exception vector 61 too large)

.vector_62      0x9fc019c0        0x0
 *(.vector_62)
                0x00000001                ASSERT (((_vector_spacing == 0x0) || (SIZEOF (.vector_62) <= (_vector_spacing << 0x5))), function at exception vector 62 too large)

.vector_63      0x9fc019e0        0x0
 *(.vector_63)
                0x00000001                ASSERT (((_vector_spacing == 0x0) || (SIZEOF (.vector_63) <= (_vector_spacing << 0x5))), function at exception vector 63 too large)

.startup        0x9fc00490      0x1e0
 *(.startup)
 .startup       0x9fc00490      0x1e0 c:/Embedded/Microchip/MPLAB C32 Suite/bin/../lib/gcc/pic32mx/3.4.4/../../../../pic32mx/lib/crt0.o

.text           0x9d000000     0x41dc
                0x9d000000                _text_begin = .
 *(.text .stub .text.* .gnu.linkonce.t.*)
 .text          0x9d000000       0x10 c:/Embedded/Microchip/MPLAB C32 Suite/bin/../lib/gcc/pic32mx/3.4.4/../../../../pic32mx/lib/crt0.o
                0x9d000008                __crt0_exit
 .text          0x9d000010     0x2d40 build/default/production/_ext/1360907413/usb_device.o
                0x9d000010                USBDeviceInit
                0x9d00033c                USBDeviceTasks
                0x9d0016c4                USBCtrlEPAllowStatusStage
                0x9d001858                USBCtrlEPAllowDataStage
                0x9d002670                USBEnableEndpoint
                0x9d002714                USBStallEndpoint
                0x9d0028f0                USBTransferOnePacket
                0x9d002b34                USBCancelIO
 .text          0x9d002d50      0x24c build/default/production/_ext/1360907413/usb_function_hid.o
                0x9d002d50                USBCheckHIDRequest
 .text          0x9d002f9c      0xe78 build/default/production/_ext/1472/main.o
                0x9d002f9c                main
                0x9d0030b4                UserInit
                0x9d003180                ProcessIO
                0x9d0031ec                BlinkUSBStatus
                0x9d003444                BootApplication
                0x9d003a64                WriteFlashSubBlock
                0x9d003aec                ReadProgramMemory
                0x9d003b10                USBCBSuspend
                0x9d003b30                USBCBWakeFromSuspend
                0x9d003b50                USBCB_SOF_Handler
                0x9d003b70                USBCBErrorHandler
                0x9d003b90                USBCBCheckOtherReq
                0x9d003bc0                USBCBStdSetDscHandler
                0x9d003be0                USBCBInitEP
                0x9d003c38                USBCBSendResume
                0x9d003ca4                USER_USB_CALLBACK_EVENT_HANDLER
 .text          0x9d003e14       0xa8 c:/Embedded/Microchip/MPLAB C32 Suite/bin/../lib/gcc/pic32mx/3.4.4/../../../../pic32mx/lib\libc.a(memset.o)
                0x9d003e14                memset
 .text.general_exception
                0x9d003ebc       0xd0 c:/Embedded/Microchip/MPLAB C32 Suite/bin/../lib/gcc/pic32mx/3.4.4/../../../../pic32mx/lib\libc.a(general-exception.o)
                0x9d003ebc                _general_exception_context
 .text._general_exception_handler
                0x9d003f8c        0x8 c:/Embedded/Microchip/MPLAB C32 Suite/bin/../lib/gcc/pic32mx/3.4.4/../../../../pic32mx/lib\libc.a(default-general-exception-handler.o)
                0x9d003f8c                _general_exception_handler
 .text._bootstrap_exception_handler
                0x9d003f94        0x8 c:/Embedded/Microchip/MPLAB C32 Suite/bin/../lib/gcc/pic32mx/3.4.4/../../../../pic32mx/lib\libc.a(default-bootstrap-exception-handler.o)
                0x9d003f94                _bootstrap_exception_handler
 .text._on_reset
                0x9d003f9c        0x8 c:/Embedded/Microchip/MPLAB C32 Suite/bin/../lib/gcc/pic32mx/3.4.4/../../../../pic32mx/lib\libc.a(default-on-reset.o)
                0x9d003f9c                _on_reset
 .text._on_bootstrap
                0x9d003fa4        0x8 c:/Embedded/Microchip/MPLAB C32 Suite/bin/../lib/gcc/pic32mx/3.4.4/../../../../pic32mx/lib\libc.a(default-on-bootstrap.o)
                0x9d003fa4                _on_bootstrap
 .text          0x9d003fac       0x18 c:/Embedded/Microchip/MPLAB C32 Suite/bin/../lib/gcc/pic32mx/3.4.4/../../../../pic32mx/lib\libc.a(default-nmi-handler.o)
                0x9d003fac                _nmi_handler
 .text.SoftReset
                0x9d003fc4       0x78 c:/Embedded/Microchip/MPLAB C32 Suite/bin/../lib/gcc/pic32mx/3.4.4/../../../../pic32mx/lib\libmchp_peripheral_32MX695F512H.a(soft_reset_lib.o)
                0x9d003fc4                SoftReset
 .text.INTDisableInterrupts
                0x9d00403c        0x8 c:/Embedded/Microchip/MPLAB C32 Suite/bin/../lib/gcc/pic32mx/3.4.4/../../../../pic32mx/lib\libmchp_peripheral_32MX695F512H.a(int_disable_interrupts_lib.o)
                0x9d00403c                INTDisableInterrupts
 .text.NVMErasePage
                0x9d004044       0x34 c:/Embedded/Microchip/MPLAB C32 Suite/bin/../lib/gcc/pic32mx/3.4.4/../../../../pic32mx/lib\libmchp_peripheral_32MX695F512H.a(nvm_erase_page_lib.o)
                0x9d004044                NVMErasePage
 .text._NVMOperation
                0x9d004078      0x10c c:/Embedded/Microchip/MPLAB C32 Suite/bin/../lib/gcc/pic32mx/3.4.4/../../../../pic32mx/lib\libmchp_peripheral_32MX695F512H.a(nvm_operation_lib.o)
                0x9d004078                _NVMOperation
 .text.NVMWriteWord
                0x9d004184       0x3c c:/Embedded/Microchip/MPLAB C32 Suite/bin/../lib/gcc/pic32mx/3.4.4/../../../../pic32mx/lib\libmchp_peripheral_32MX695F512H.a(nvm_write_word_lib.o)
                0x9d004184                NVMWriteWord
 .text.INTRestoreInterrupts
                0x9d0041c0       0x1c c:/Embedded/Microchip/MPLAB C32 Suite/bin/../lib/gcc/pic32mx/3.4.4/../../../../pic32mx/lib\libmchp_peripheral_32MX695F512H.a(int_restore_interrupts_lib.o)
                0x9d0041c0                INTRestoreInterrupts
 *(.text.*personality*)
 *(.gnu.warning)
 *(.mips16.fn.*)
 *(.mips16.call.*)
                0x9d0041dc                _text_end = .

.rodata         0x9d0041dc      0x124
 *(.rodata .rodata.* .gnu.linkonce.r.*)
 .rodata        0x9d0041dc       0x30 build/default/production/_ext/1360907413/usb_device.o
 .rodata        0x9d00420c       0x24 build/default/production/_ext/1472/main.o
 .rodata        0x9d004230       0xd0 build/default/production/_ext/1472/usb_descriptors.o
                0x9d004230                device_dsc
                0x9d004244                configDescriptor1
                0x9d004270                sd000
                0x9d004274                sd001
                0x9d0042a8                sd002
                0x9d0042d0                hid_rpt01
                0x9d0042f0                USB_CD_Ptr
                0x9d0042f4                USB_SD_Ptr
 *(.rodata1)
                0x9d004300                . = ALIGN (0x4)

.sdata2         0x9d004300        0x0
 *(.sdata2 .sdata2.* .gnu.linkonce.s2.*)
                0x9d004300                . = ALIGN (0x4)

.sbss2          0x9d004300        0x0
 *(.sbss2 .sbss2.* .gnu.linkonce.sb2.*)
                0x9d004300                . = ALIGN (0x4)

.eh_frame_hdr
 *(.eh_frame_hdr)

.eh_frame
 *(.eh_frame)

.dbg_data       0xa0000000        0x0
                0xa0000000                . = (. + DEFINED (_DEBUGGER)?0x200:0x0)

.persist        0xa0000000        0x0
                0xa0000000                _persist_begin = .
 *(.persist .persist.*)
                0xa0000000                _persist_end = .

.data           0xa0000000        0x0 load address 0x9d004300
                0xa0000000                _data_begin = .
 *(.data .data.* .gnu.linkonce.d.*)
 *(.gnu.linkonce.d.*personality*)
 *(.data1)
                0x9d004300                _data_image_begin = LOADADDR (.data)

.eh_frame
 *(.eh_frame)
                0xa0000000                . = .
                0xa0007ff0                _gp = (ALIGN (0x10) + 0x7ff0)

.got
 *(.got.plt)
 *(.got)

.sdata          0xa0000000        0x4 load address 0x9d004300
                0xa0000000                _sdata_begin = .
 *(.sdata .sdata.* .gnu.linkonce.s.*)
 .sdata         0xa0000000        0x4 build/default/production/_ext/1472/main.o
                0xa0000000                blinkStatusValid
                0xa0000004                _sdata_end = .

.lit8
 *(.lit8)

.lit4
 *(.lit4)
                0xa0000004                . = ALIGN (0x4)
                0xa0000004                _data_end = .
                0xa0000004                _bss_begin = .

.sbss           0xa0000004       0x88 load address 0x9d004304
                0xa0000004                _sbss_begin = .
 *(.dynsbss)
 *(.sbss .sbss.* .gnu.linkonce.sb.*)
 .sbss          0xa0000004        0xc build/default/production/_ext/1472/main.o
                0xa0000004                USBOutHandle
                0xa0000008                USBInHandle
 *(.scommon)
 .scommon       0xa0000010       0x6a build/default/production/_ext/1360907413/usb_device.o
                0xa0000010                ep_data_in
                0xa0000014                USBDeferStatusStagePacket
                0xa0000018                USTATcopy
                0xa000001c                CtrlTrfData
                0xa0000024                RemoteWakeup
                0xa0000028                controlTransferState
                0xa0000029                USBStatusStageTimeoutCounter
                0xa000002c                pDst
                0xa0000030                USBDeferINDataStagePackets
                0xa0000034                ep_data_out
                0xa0000038                SetupPkt
                0xa0000040                pBDTEntryEP0OutNext
                0xa0000044                USBAlternateInterface
                0xa0000048                USBStatusStageEnabledFlag2
                0xa000004c                BothEP0OutUOWNsSet
                0xa0000050                USBBusIsSuspended
                0xa0000054                USBDeferOUTDataStagePackets
                0xa0000058                pBDTEntryOut
                0xa0000060                USBActiveConfiguration
                0xa0000064                USBStatusStageEnabledFlag1
                0xa0000068                USBDeviceState
                0xa000006c                pBDTEntryIn
                0xa0000074                pBDTEntryEP0OutCurrent
                0xa0000078                shortPacketStatus
                0xa0000079                endpoint_number
 .scommon       0xa000007a        0x2 build/default/production/_ext/1360907413/usb_function_hid.o
                0xa000007a                active_protocol
                0xa000007b                idle_rate
 .scommon       0xa000007c       0x10 build/default/production/_ext/1472/main.o
                0xa000007c                BufferedDataIndex
                0xa000007d                MaxPageToErase
                0xa000007e                ErasePageTracker
                0xa0000080                ProgrammedPointer
                0xa0000084                BootState
                0xa0000085                ConfigsProtected
                0xa0000088                ProgramMemStopAddress
                0xa000008c                _sbss_end = .

.bss            0xa0000200      0x380 load address 0x9d004304
 *(.dynbss)
 *(.bss .bss.* .gnu.linkonce.b.*)
 *(COMMON)
 COMMON         0xa0000200      0x240 build/default/production/_ext/1360907413/usb_device.o
                0xa0000200                inPipes
                0xa0000210                outPipes
                0xa000021c                hid_report_out
                0xa000025c                hid_report_in
                0xa0000400                BDT
 COMMON         0xa0000440      0x140 build/default/production/_ext/1472/main.o
                0xa0000440                PacketFromPCBuffer
                0xa0000480                PacketToPC
                0xa00004c0                PacketFromPC
                0xa0000500                ProgrammingBuffer
                0xa0000580                . = ALIGN (0x4)

.boot_software_key_sec
                0xa0000580        0x4
 .boot_software_key_sec
                0xa0000580        0x4 build/default/production/_ext/1472/main.o
                0xa0000580                SoftwareKey
                0xa0000584                . = ALIGN (0x4)
                0xa0000584                _end = .
                0xa0000584                _bss_end = .

.heap           0xa0000588        0x0 load address 0x9d004304
                0xa0000588                _heap = .
                0xa0000588                . = (. + _min_heap_size)
                0xa0000588                . = ALIGN (0x8)

.stack          0xa0000588      0x400 load address 0x9d004304
                0xa0000588                _splim = .
                0xa0000588                _SPLIM = .
                0xa0000988                . = (. + _min_stack_size)
 *fill*         0xa0000588      0x400 00
                0xa0000988                . = ALIGN (0x8)

.ramfunc        0xa0001000        0x0 load address 0x9d004304
                0xa0001000                _ramfunc_begin = .
 *(.ramfunc .ramfunc.*)
                0xa0001000                . = ALIGN (0x4)
                0xa0001000                _ramfunc_end = .
                0x9d004304                _ramfunc_image_begin = LOADADDR (.ramfunc)
                0x00000000                _ramfunc_length = SIZEOF (.ramfunc)
                0x00001000                _bmxdkpba_address = (_ramfunc_begin - 0xa0000000)
                0x00020000                _bmxdudba_address = 0x20000
                0x00020000                _bmxdupba_address = 0x20000
                0xa0020000                _stack = (_ramfunc_length > 0x0)?(_ramfunc_begin - 0x8):0xa0020000
                0x00000001                ASSERT (((_min_stack_size + _min_heap_size) <= (_stack - _heap)), Not enough space to allocate both stack and heap.  Reduce heap and/or stack size.)

/DISCARD/
 *(.pdr)
 *(.reginfo)
 *(.rel.dyn)
 *(.note.GNU-stack)

.stab
 *(.stab)

.stabstr
 *(.stabstr)

.stab.excl
 *(.stab.excl)

.stab.exclstr
 *(.stab.exclstr)

.stab.index
 *(.stab.index)

.stab.indexstr
 *(.stab.indexstr)

.mdebug.abi32   0x00000000        0x0
 .mdebug.abi32  0x00000000        0x0 build/default/production/_ext/1360907413/usb_device.o
 .mdebug.abi32  0x00000000        0x0 build/default/production/_ext/1360907413/usb_function_hid.o
 .mdebug.abi32  0x00000000        0x0 build/default/production/_ext/1472/main.o
 .mdebug.abi32  0x00000000        0x0 build/default/production/_ext/1472/usb_descriptors.o
 .mdebug.abi32  0x00000000        0x0 c:/Embedded/Microchip/MPLAB C32 Suite/bin/../lib/gcc/pic32mx/3.4.4/../../../../pic32mx/lib\libc.a(default-general-exception-handler.o)
 .mdebug.abi32  0x00000000        0x0 c:/Embedded/Microchip/MPLAB C32 Suite/bin/../lib/gcc/pic32mx/3.4.4/../../../../pic32mx/lib\libc.a(default-bootstrap-exception-handler.o)
 .mdebug.abi32  0x00000000        0x0 c:/Embedded/Microchip/MPLAB C32 Suite/bin/../lib/gcc/pic32mx/3.4.4/../../../../pic32mx/lib\libc.a(default-on-reset.o)
 .mdebug.abi32  0x00000000        0x0 c:/Embedded/Microchip/MPLAB C32 Suite/bin/../lib/gcc/pic32mx/3.4.4/../../../../pic32mx/lib\libc.a(default-on-bootstrap.o)
 .mdebug.abi32  0x00000000        0x0 c:/Embedded/Microchip/MPLAB C32 Suite/bin/../lib/gcc/pic32mx/3.4.4/../../../../pic32mx/lib\libmchp_peripheral_32MX695F512H.a(soft_reset_lib.o)
 .mdebug.abi32  0x00000000        0x0 c:/Embedded/Microchip/MPLAB C32 Suite/bin/../lib/gcc/pic32mx/3.4.4/../../../../pic32mx/lib\libmchp_peripheral_32MX695F512H.a(int_disable_interrupts_lib.o)
 .mdebug.abi32  0x00000000        0x0 c:/Embedded/Microchip/MPLAB C32 Suite/bin/../lib/gcc/pic32mx/3.4.4/../../../../pic32mx/lib\libmchp_peripheral_32MX695F512H.a(nvm_erase_page_lib.o)
 .mdebug.abi32  0x00000000        0x0 c:/Embedded/Microchip/MPLAB C32 Suite/bin/../lib/gcc/pic32mx/3.4.4/../../../../pic32mx/lib\libmchp_peripheral_32MX695F512H.a(nvm_operation_lib.o)
 .mdebug.abi32  0x00000000        0x0 c:/Embedded/Microchip/MPLAB C32 Suite/bin/../lib/gcc/pic32mx/3.4.4/../../../../pic32mx/lib\libmchp_peripheral_32MX695F512H.a(nvm_write_word_lib.o)
 .mdebug.abi32  0x00000000        0x0 c:/Embedded/Microchip/MPLAB C32 Suite/bin/../lib/gcc/pic32mx/3.4.4/../../../../pic32mx/lib\libmchp_peripheral_32MX695F512H.a(int_restore_interrupts_lib.o)

.comment        0x00000000      0x48c
 *(.comment)
 .comment       0x00000000       0x4d build/default/production/_ext/1360907413/usb_device.o
 .comment       0x0000004d       0x4d build/default/production/_ext/1360907413/usb_function_hid.o
 .comment       0x0000009a       0x4d build/default/production/_ext/1472/main.o
 .comment       0x000000e7       0x4d build/default/production/_ext/1472/usb_descriptors.o
 .comment       0x00000134       0x56 c:/Embedded/Microchip/MPLAB C32 Suite/bin/../lib/gcc/pic32mx/3.4.4/../../../../pic32mx/lib\libc.a(memset.o)
 .comment       0x0000018a       0x4d c:/Embedded/Microchip/MPLAB C32 Suite/bin/../lib/gcc/pic32mx/3.4.4/../../../../pic32mx/lib\libc.a(default-general-exception-handler.o)
 .comment       0x000001d7       0x4d c:/Embedded/Microchip/MPLAB C32 Suite/bin/../lib/gcc/pic32mx/3.4.4/../../../../pic32mx/lib\libc.a(default-bootstrap-exception-handler.o)
 .comment       0x00000224       0x4d c:/Embedded/Microchip/MPLAB C32 Suite/bin/../lib/gcc/pic32mx/3.4.4/../../../../pic32mx/lib\libc.a(default-on-reset.o)
 .comment       0x00000271       0x4d c:/Embedded/Microchip/MPLAB C32 Suite/bin/../lib/gcc/pic32mx/3.4.4/../../../../pic32mx/lib\libc.a(default-on-bootstrap.o)
 .comment       0x000002be       0x4d c:/Embedded/Microchip/MPLAB C32 Suite/bin/../lib/gcc/pic32mx/3.4.4/../../../../pic32mx/lib\libmchp_peripheral_32MX695F512H.a(soft_reset_lib.o)
 .comment       0x0000030b       0x4d c:/Embedded/Microchip/MPLAB C32 Suite/bin/../lib/gcc/pic32mx/3.4.4/../../../../pic32mx/lib\libmchp_peripheral_32MX695F512H.a(int_disable_interrupts_lib.o)
 .comment       0x00000358       0x4d c:/Embedded/Microchip/MPLAB C32 Suite/bin/../lib/gcc/pic32mx/3.4.4/../../../../pic32mx/lib\libmchp_peripheral_32MX695F512H.a(nvm_erase_page_lib.o)
 .comment       0x000003a5       0x4d c:/Embedded/Microchip/MPLAB C32 Suite/bin/../lib/gcc/pic32mx/3.4.4/../../../../pic32mx/lib\libmchp_peripheral_32MX695F512H.a(nvm_operation_lib.o)
 .comment       0x000003f2       0x4d c:/Embedded/Microchip/MPLAB C32 Suite/bin/../lib/gcc/pic32mx/3.4.4/../../../../pic32mx/lib\libmchp_peripheral_32MX695F512H.a(nvm_write_word_lib.o)
 .comment       0x0000043f       0x4d c:/Embedded/Microchip/MPLAB C32 Suite/bin/../lib/gcc/pic32mx/3.4.4/../../../../pic32mx/lib\libmchp_peripheral_32MX695F512H.a(int_restore_interrupts_lib.o)

.debug
 *(.debug)

.line
 *(.line)

.debug_srcinfo
 *(.debug_srcinfo)

.debug_sfnames
 *(.debug_sfnames)

.debug_aranges  0x00000000      0x190
 *(.debug_aranges)
 .debug_aranges
                0x00000000       0x28 c:/Embedded/Microchip/MPLAB C32 Suite/bin/../lib/gcc/pic32mx/3.4.4/../../../../pic32mx/lib\libc.a(default-general-exception-handler.o)
 .debug_aranges
                0x00000028       0x28 c:/Embedded/Microchip/MPLAB C32 Suite/bin/../lib/gcc/pic32mx/3.4.4/../../../../pic32mx/lib\libc.a(default-bootstrap-exception-handler.o)
 .debug_aranges
                0x00000050       0x28 c:/Embedded/Microchip/MPLAB C32 Suite/bin/../lib/gcc/pic32mx/3.4.4/../../../../pic32mx/lib\libc.a(default-on-reset.o)
 .debug_aranges
                0x00000078       0x28 c:/Embedded/Microchip/MPLAB C32 Suite/bin/../lib/gcc/pic32mx/3.4.4/../../../../pic32mx/lib\libc.a(default-on-bootstrap.o)
 .debug_aranges
                0x000000a0       0x28 c:/Embedded/Microchip/MPLAB C32 Suite/bin/../lib/gcc/pic32mx/3.4.4/../../../../pic32mx/lib\libmchp_peripheral_32MX695F512H.a(soft_reset_lib.o)
 .debug_aranges
                0x000000c8       0x28 c:/Embedded/Microchip/MPLAB C32 Suite/bin/../lib/gcc/pic32mx/3.4.4/../../../../pic32mx/lib\libmchp_peripheral_32MX695F512H.a(int_disable_interrupts_lib.o)
 .debug_aranges
                0x000000f0       0x28 c:/Embedded/Microchip/MPLAB C32 Suite/bin/../lib/gcc/pic32mx/3.4.4/../../../../pic32mx/lib\libmchp_peripheral_32MX695F512H.a(nvm_erase_page_lib.o)
 .debug_aranges
                0x00000118       0x28 c:/Embedded/Microchip/MPLAB C32 Suite/bin/../lib/gcc/pic32mx/3.4.4/../../../../pic32mx/lib\libmchp_peripheral_32MX695F512H.a(nvm_operation_lib.o)
 .debug_aranges
                0x00000140       0x28 c:/Embedded/Microchip/MPLAB C32 Suite/bin/../lib/gcc/pic32mx/3.4.4/../../../../pic32mx/lib\libmchp_peripheral_32MX695F512H.a(nvm_write_word_lib.o)
 .debug_aranges
                0x00000168       0x28 c:/Embedded/Microchip/MPLAB C32 Suite/bin/../lib/gcc/pic32mx/3.4.4/../../../../pic32mx/lib\libmchp_peripheral_32MX695F512H.a(int_restore_interrupts_lib.o)

.debug_pubnames
                0x00000000      0x188
 *(.debug_pubnames)
 .debug_pubnames
                0x00000000       0x31 c:/Embedded/Microchip/MPLAB C32 Suite/bin/../lib/gcc/pic32mx/3.4.4/../../../../pic32mx/lib\libc.a(default-general-exception-handler.o)
 .debug_pubnames
                0x00000031       0x33 c:/Embedded/Microchip/MPLAB C32 Suite/bin/../lib/gcc/pic32mx/3.4.4/../../../../pic32mx/lib\libc.a(default-bootstrap-exception-handler.o)
 .debug_pubnames
                0x00000064       0x20 c:/Embedded/Microchip/MPLAB C32 Suite/bin/../lib/gcc/pic32mx/3.4.4/../../../../pic32mx/lib\libc.a(default-on-reset.o)
 .debug_pubnames
                0x00000084       0x24 c:/Embedded/Microchip/MPLAB C32 Suite/bin/../lib/gcc/pic32mx/3.4.4/../../../../pic32mx/lib\libc.a(default-on-bootstrap.o)
 .debug_pubnames
                0x000000a8       0x20 c:/Embedded/Microchip/MPLAB C32 Suite/bin/../lib/gcc/pic32mx/3.4.4/../../../../pic32mx/lib\libmchp_peripheral_32MX695F512H.a(soft_reset_lib.o)
 .debug_pubnames
                0x000000c8       0x2b c:/Embedded/Microchip/MPLAB C32 Suite/bin/../lib/gcc/pic32mx/3.4.4/../../../../pic32mx/lib\libmchp_peripheral_32MX695F512H.a(int_disable_interrupts_lib.o)
 .debug_pubnames
                0x000000f3       0x23 c:/Embedded/Microchip/MPLAB C32 Suite/bin/../lib/gcc/pic32mx/3.4.4/../../../../pic32mx/lib\libmchp_peripheral_32MX695F512H.a(nvm_erase_page_lib.o)
 .debug_pubnames
                0x00000116       0x24 c:/Embedded/Microchip/MPLAB C32 Suite/bin/../lib/gcc/pic32mx/3.4.4/../../../../pic32mx/lib\libmchp_peripheral_32MX695F512H.a(nvm_operation_lib.o)
 .debug_pubnames
                0x0000013a       0x23 c:/Embedded/Microchip/MPLAB C32 Suite/bin/../lib/gcc/pic32mx/3.4.4/../../../../pic32mx/lib\libmchp_peripheral_32MX695F512H.a(nvm_write_word_lib.o)
 .debug_pubnames
                0x0000015d       0x2b c:/Embedded/Microchip/MPLAB C32 Suite/bin/../lib/gcc/pic32mx/3.4.4/../../../../pic32mx/lib\libmchp_peripheral_32MX695F512H.a(int_restore_interrupts_lib.o)

.debug_info     0x00000000      0x1e4
 *(.debug_info .gnu.linkonce.wi.*)
 .debug_info    0x00000000       0x31 c:/Embedded/Microchip/MPLAB C32 Suite/bin/../lib/gcc/pic32mx/3.4.4/../../../../pic32mx/lib\libc.a(default-general-exception-handler.o)
 .debug_info    0x00000031       0x31 c:/Embedded/Microchip/MPLAB C32 Suite/bin/../lib/gcc/pic32mx/3.4.4/../../../../pic32mx/lib\libc.a(default-bootstrap-exception-handler.o)
 .debug_info    0x00000062       0x31 c:/Embedded/Microchip/MPLAB C32 Suite/bin/../lib/gcc/pic32mx/3.4.4/../../../../pic32mx/lib\libc.a(default-on-reset.o)
 .debug_info    0x00000093       0x31 c:/Embedded/Microchip/MPLAB C32 Suite/bin/../lib/gcc/pic32mx/3.4.4/../../../../pic32mx/lib\libc.a(default-on-bootstrap.o)
 .debug_info    0x000000c4       0x30 c:/Embedded/Microchip/MPLAB C32 Suite/bin/../lib/gcc/pic32mx/3.4.4/../../../../pic32mx/lib\libmchp_peripheral_32MX695F512H.a(soft_reset_lib.o)
 .debug_info    0x000000f4       0x30 c:/Embedded/Microchip/MPLAB C32 Suite/bin/../lib/gcc/pic32mx/3.4.4/../../../../pic32mx/lib\libmchp_peripheral_32MX695F512H.a(int_disable_interrupts_lib.o)
 .debug_info    0x00000124       0x30 c:/Embedded/Microchip/MPLAB C32 Suite/bin/../lib/gcc/pic32mx/3.4.4/../../../../pic32mx/lib\libmchp_peripheral_32MX695F512H.a(nvm_erase_page_lib.o)
 .debug_info    0x00000154       0x30 c:/Embedded/Microchip/MPLAB C32 Suite/bin/../lib/gcc/pic32mx/3.4.4/../../../../pic32mx/lib\libmchp_peripheral_32MX695F512H.a(nvm_operation_lib.o)
 .debug_info    0x00000184       0x30 c:/Embedded/Microchip/MPLAB C32 Suite/bin/../lib/gcc/pic32mx/3.4.4/../../../../pic32mx/lib\libmchp_peripheral_32MX695F512H.a(nvm_write_word_lib.o)
 .debug_info    0x000001b4       0x30 c:/Embedded/Microchip/MPLAB C32 Suite/bin/../lib/gcc/pic32mx/3.4.4/../../../../pic32mx/lib\libmchp_peripheral_32MX695F512H.a(int_restore_interrupts_lib.o)

.debug_abbrev   0x00000000      0x166
 *(.debug_abbrev)
 .debug_abbrev  0x00000000       0x25 c:/Embedded/Microchip/MPLAB C32 Suite/bin/../lib/gcc/pic32mx/3.4.4/../../../../pic32mx/lib\libc.a(default-general-exception-handler.o)
 .debug_abbrev  0x00000025       0x25 c:/Embedded/Microchip/MPLAB C32 Suite/bin/../lib/gcc/pic32mx/3.4.4/../../../../pic32mx/lib\libc.a(default-bootstrap-exception-handler.o)
 .debug_abbrev  0x0000004a       0x25 c:/Embedded/Microchip/MPLAB C32 Suite/bin/../lib/gcc/pic32mx/3.4.4/../../../../pic32mx/lib\libc.a(default-on-reset.o)
 .debug_abbrev  0x0000006f       0x25 c:/Embedded/Microchip/MPLAB C32 Suite/bin/../lib/gcc/pic32mx/3.4.4/../../../../pic32mx/lib\libc.a(default-on-bootstrap.o)
 .debug_abbrev  0x00000094       0x23 c:/Embedded/Microchip/MPLAB C32 Suite/bin/../lib/gcc/pic32mx/3.4.4/../../../../pic32mx/lib\libmchp_peripheral_32MX695F512H.a(soft_reset_lib.o)
 .debug_abbrev  0x000000b7       0x23 c:/Embedded/Microchip/MPLAB C32 Suite/bin/../lib/gcc/pic32mx/3.4.4/../../../../pic32mx/lib\libmchp_peripheral_32MX695F512H.a(int_disable_interrupts_lib.o)
 .debug_abbrev  0x000000da       0x23 c:/Embedded/Microchip/MPLAB C32 Suite/bin/../lib/gcc/pic32mx/3.4.4/../../../../pic32mx/lib\libmchp_peripheral_32MX695F512H.a(nvm_erase_page_lib.o)
 .debug_abbrev  0x000000fd       0x23 c:/Embedded/Microchip/MPLAB C32 Suite/bin/../lib/gcc/pic32mx/3.4.4/../../../../pic32mx/lib\libmchp_peripheral_32MX695F512H.a(nvm_operation_lib.o)
 .debug_abbrev  0x00000120       0x23 c:/Embedded/Microchip/MPLAB C32 Suite/bin/../lib/gcc/pic32mx/3.4.4/../../../../pic32mx/lib\libmchp_peripheral_32MX695F512H.a(nvm_write_word_lib.o)
 .debug_abbrev  0x00000143       0x23 c:/Embedded/Microchip/MPLAB C32 Suite/bin/../lib/gcc/pic32mx/3.4.4/../../../../pic32mx/lib\libmchp_peripheral_32MX695F512H.a(int_restore_interrupts_lib.o)

.debug_line     0x00000000      0x6bd
 *(.debug_line)
 .debug_line    0x00000000       0xba c:/Embedded/Microchip/MPLAB C32 Suite/bin/../lib/gcc/pic32mx/3.4.4/../../../../pic32mx/lib\libc.a(default-general-exception-handler.o)
 .debug_line    0x000000ba       0xbc c:/Embedded/Microchip/MPLAB C32 Suite/bin/../lib/gcc/pic32mx/3.4.4/../../../../pic32mx/lib\libc.a(default-bootstrap-exception-handler.o)
 .debug_line    0x00000176       0xa9 c:/Embedded/Microchip/MPLAB C32 Suite/bin/../lib/gcc/pic32mx/3.4.4/../../../../pic32mx/lib\libc.a(default-on-reset.o)
 .debug_line    0x0000021f       0xad c:/Embedded/Microchip/MPLAB C32 Suite/bin/../lib/gcc/pic32mx/3.4.4/../../../../pic32mx/lib\libc.a(default-on-bootstrap.o)
 .debug_line    0x000002cc       0xa4 c:/Embedded/Microchip/MPLAB C32 Suite/bin/../lib/gcc/pic32mx/3.4.4/../../../../pic32mx/lib\libmchp_peripheral_32MX695F512H.a(soft_reset_lib.o)
 .debug_line    0x00000370       0xae c:/Embedded/Microchip/MPLAB C32 Suite/bin/../lib/gcc/pic32mx/3.4.4/../../../../pic32mx/lib\libmchp_peripheral_32MX695F512H.a(int_disable_interrupts_lib.o)
 .debug_line    0x0000041e       0xa6 c:/Embedded/Microchip/MPLAB C32 Suite/bin/../lib/gcc/pic32mx/3.4.4/../../../../pic32mx/lib\libmchp_peripheral_32MX695F512H.a(nvm_erase_page_lib.o)
 .debug_line    0x000004c4       0xa5 c:/Embedded/Microchip/MPLAB C32 Suite/bin/../lib/gcc/pic32mx/3.4.4/../../../../pic32mx/lib\libmchp_peripheral_32MX695F512H.a(nvm_operation_lib.o)
 .debug_line    0x00000569       0xa6 c:/Embedded/Microchip/MPLAB C32 Suite/bin/../lib/gcc/pic32mx/3.4.4/../../../../pic32mx/lib\libmchp_peripheral_32MX695F512H.a(nvm_write_word_lib.o)
 .debug_line    0x0000060f       0xae c:/Embedded/Microchip/MPLAB C32 Suite/bin/../lib/gcc/pic32mx/3.4.4/../../../../pic32mx/lib\libmchp_peripheral_32MX695F512H.a(int_restore_interrupts_lib.o)

.debug_frame    0x00000000      0x164
 *(.debug_frame)
 .debug_frame   0x00000000       0x20 c:/Embedded/Microchip/MPLAB C32 Suite/bin/../lib/gcc/pic32mx/3.4.4/../../../../pic32mx/lib\libc.a(default-general-exception-handler.o)
 .debug_frame   0x00000020       0x20 c:/Embedded/Microchip/MPLAB C32 Suite/bin/../lib/gcc/pic32mx/3.4.4/../../../../pic32mx/lib\libc.a(default-bootstrap-exception-handler.o)
 .debug_frame   0x00000040       0x20 c:/Embedded/Microchip/MPLAB C32 Suite/bin/../lib/gcc/pic32mx/3.4.4/../../../../pic32mx/lib\libc.a(default-on-reset.o)
 .debug_frame   0x00000060       0x20 c:/Embedded/Microchip/MPLAB C32 Suite/bin/../lib/gcc/pic32mx/3.4.4/../../../../pic32mx/lib\libc.a(default-on-bootstrap.o)
 .debug_frame   0x00000080       0x28 c:/Embedded/Microchip/MPLAB C32 Suite/bin/../lib/gcc/pic32mx/3.4.4/../../../../pic32mx/lib\libmchp_peripheral_32MX695F512H.a(soft_reset_lib.o)
 .debug_frame   0x000000a8       0x20 c:/Embedded/Microchip/MPLAB C32 Suite/bin/../lib/gcc/pic32mx/3.4.4/../../../../pic32mx/lib\libmchp_peripheral_32MX695F512H.a(int_disable_interrupts_lib.o)
 .debug_frame   0x000000c8       0x28 c:/Embedded/Microchip/MPLAB C32 Suite/bin/../lib/gcc/pic32mx/3.4.4/../../../../pic32mx/lib\libmchp_peripheral_32MX695F512H.a(nvm_erase_page_lib.o)
 .debug_frame   0x000000f0       0x2c c:/Embedded/Microchip/MPLAB C32 Suite/bin/../lib/gcc/pic32mx/3.4.4/../../../../pic32mx/lib\libmchp_peripheral_32MX695F512H.a(nvm_operation_lib.o)
 .debug_frame   0x0000011c       0x28 c:/Embedded/Microchip/MPLAB C32 Suite/bin/../lib/gcc/pic32mx/3.4.4/../../../../pic32mx/lib\libmchp_peripheral_32MX695F512H.a(nvm_write_word_lib.o)
 .debug_frame   0x00000144       0x20 c:/Embedded/Microchip/MPLAB C32 Suite/bin/../lib/gcc/pic32mx/3.4.4/../../../../pic32mx/lib\libmchp_peripheral_32MX695F512H.a(int_restore_interrupts_lib.o)

.debug_str      0x00000000      0x630
 *(.debug_str)
 .debug_str     0x00000000       0xec c:/Embedded/Microchip/MPLAB C32 Suite/bin/../lib/gcc/pic32mx/3.4.4/../../../../pic32mx/lib\libc.a(default-general-exception-handler.o)
 .debug_str     0x000000ec       0xa9 c:/Embedded/Microchip/MPLAB C32 Suite/bin/../lib/gcc/pic32mx/3.4.4/../../../../pic32mx/lib\libc.a(default-bootstrap-exception-handler.o)
                                 0xf0 (size before relaxing)
 .debug_str     0x00000195       0x83 c:/Embedded/Microchip/MPLAB C32 Suite/bin/../lib/gcc/pic32mx/3.4.4/../../../../pic32mx/lib\libc.a(default-on-reset.o)
                                 0xca (size before relaxing)
 .debug_str     0x00000218       0x8b c:/Embedded/Microchip/MPLAB C32 Suite/bin/../lib/gcc/pic32mx/3.4.4/../../../../pic32mx/lib\libc.a(default-on-bootstrap.o)
                                 0xd2 (size before relaxing)
 .debug_str     0x000002a3       0x8e c:/Embedded/Microchip/MPLAB C32 Suite/bin/../lib/gcc/pic32mx/3.4.4/../../../../pic32mx/lib\libmchp_peripheral_32MX695F512H.a(soft_reset_lib.o)
                                 0xd5 (size before relaxing)
 .debug_str     0x00000331       0xa3 c:/Embedded/Microchip/MPLAB C32 Suite/bin/../lib/gcc/pic32mx/3.4.4/../../../../pic32mx/lib\libmchp_peripheral_32MX695F512H.a(int_disable_interrupts_lib.o)
                                 0xea (size before relaxing)
 .debug_str     0x000003d4       0x93 c:/Embedded/Microchip/MPLAB C32 Suite/bin/../lib/gcc/pic32mx/3.4.4/../../../../pic32mx/lib\libmchp_peripheral_32MX695F512H.a(nvm_erase_page_lib.o)
                                 0xda (size before relaxing)
 .debug_str     0x00000467       0x93 c:/Embedded/Microchip/MPLAB C32 Suite/bin/../lib/gcc/pic32mx/3.4.4/../../../../pic32mx/lib\libmchp_peripheral_32MX695F512H.a(nvm_operation_lib.o)
                                 0xda (size before relaxing)
 .debug_str     0x000004fa       0x93 c:/Embedded/Microchip/MPLAB C32 Suite/bin/../lib/gcc/pic32mx/3.4.4/../../../../pic32mx/lib\libmchp_peripheral_32MX695F512H.a(nvm_write_word_lib.o)
                                 0xda (size before relaxing)
 .debug_str     0x0000058d       0xa3 c:/Embedded/Microchip/MPLAB C32 Suite/bin/../lib/gcc/pic32mx/3.4.4/../../../../pic32mx/lib\libmchp_peripheral_32MX695F512H.a(int_restore_interrupts_lib.o)
                                 0xea (size before relaxing)

.debug_loc
 *(.debug_loc)

.debug_macinfo  0x00000000     0x24bc
 *(.debug_macinfo)
 .debug_macinfo
                0x00000000      0x92f c:/Embedded/Microchip/MPLAB C32 Suite/bin/../lib/gcc/pic32mx/3.4.4/../../../../pic32mx/lib\libc.a(default-general-exception-handler.o)
 .debug_macinfo
                0x0000092f      0x92f c:/Embedded/Microchip/MPLAB C32 Suite/bin/../lib/gcc/pic32mx/3.4.4/../../../../pic32mx/lib\libc.a(default-bootstrap-exception-handler.o)
 .debug_macinfo
                0x0000125e      0x92f c:/Embedded/Microchip/MPLAB C32 Suite/bin/../lib/gcc/pic32mx/3.4.4/../../../../pic32mx/lib\libc.a(default-on-reset.o)
 .debug_macinfo
                0x00001b8d      0x92f c:/Embedded/Microchip/MPLAB C32 Suite/bin/../lib/gcc/pic32mx/3.4.4/../../../../pic32mx/lib\libc.a(default-on-bootstrap.o)

.debug_weaknames
 *(.debug_weaknames)

.debug_funcnames
 *(.debug_funcnames)

.debug_typenames
 *(.debug_typenames)

.debug_varnames
 *(.debug_varnames)
OUTPUT(dist/default/production/HIDBoot.X.production.elf elf32-tradlittlemips)
